; Function Attrs: mustprogress uwtable
define dso_local void @_ZNK21cmLocalNinjaGenerator22MaybeRelativeToWorkDirERKNSt7__cxx1112basic_stringIcSt11char_traitsIcESaIcEEE(ptr dead_on_unwind noalias writable sret(%"class.std::__cxx11::basic_string") align 8 %0, ptr noundef nonnull align 8 dereferenceable(952) %1, ptr noundef nonnull align 8 dereferenceable(32) %2) unnamed_addr #3 align 2 personality ptr @__gxx_personality_v0 {
  %4 = alloca %"class.std::__cxx11::basic_string", align 8
  %5 = getelementptr inbounds i8, ptr %1, i64 136
  %6 = load ptr, ptr %5, align 8
  call void @_ZNK17cmOutputConverter24MaybeRelativeToTopBinDirERKNSt7__cxx1112basic_stringIcSt11char_traitsIcESaIcEEE(ptr dead_on_unwind nonnull writable sret(%"class.std::__cxx11::basic_string") align 8 %4, ptr noundef nonnull align 8 dereferenceable(108) %1, ptr noundef nonnull align 8 dereferenceable(32) %2)
  invoke void @_ZNK22cmGlobalNinjaGenerator15NinjaOutputPathERKNSt7__cxx1112basic_stringIcSt11char_traitsIcESaIcEEE(ptr dead_on_unwind writable sret(%"class.std::__cxx11::basic_string") align 8 %0, ptr noundef nonnull align 8 dereferenceable(2808) %6, ptr noundef nonnull align 8 dereferenceable(32) %4)
          to label %7 unwind label %8

7:                                                ; preds = %3
  call void @_ZNSt7__cxx1112basic_stringIcSt11char_traitsIcESaIcEED1Ev(ptr noundef nonnull align 8 dereferenceable(32) %4) #22
  ret void

8:                                                ; preds = %3
  %9 = landingpad { ptr, i32 }
          cleanup
  call void @_ZNSt7__cxx1112basic_stringIcSt11char_traitsIcESaIcEED1Ev(ptr noundef nonnull align 8 dereferenceable(32) %4) #22
  resume { ptr, i32 } %9
}